target datalayout = "e-m:e-p270:32:32-p271:32:32-p272:64:64-i64:64-i128:128-f80:128-n8:16:32:64-S128"
target triple = "x86_64-pc-linux-gnu"

%"struct.duckdb_yyjson::yyjson_mut_val" = type { i64, %"union.duckdb_yyjson::yyjson_val_uni", ptr }
%"union.duckdb_yyjson::yyjson_val_uni" = type { i64 }
%"struct.duckdb_yyjson::yyjson_val" = type { i64, %"union.duckdb_yyjson::yyjson_val_uni" }

; Function Attrs: alwaysinline mustprogress nounwind uwtable
define internal noundef i64 @_ZN13duckdb_yyjsonL21unsafe_yyjson_get_lenEPv(ptr noundef %0) #7 {
  %2 = alloca ptr, align 8
  store ptr %0, ptr %2, align 8, !tbaa !8
  %3 = load ptr, ptr %2, align 8, !tbaa !8
  %4 = getelementptr inbounds nuw %"struct.duckdb_yyjson::yyjson_val", ptr %3, i32 0, i32 0
  %5 = load i64, ptr %4, align 8, !tbaa !88
  %6 = lshr i64 %5, 8
  ret i64 %6
}

; Function Attrs: alwaysinline mustprogress nounwind uwtable
define internal noundef zeroext i8 @_ZN13duckdb_yyjsonL22unsafe_yyjson_get_typeEPv(ptr noundef %0) #7 {
  %2 = alloca ptr, align 8
  %3 = alloca i8, align 1
  store ptr %0, ptr %2, align 8, !tbaa !8
  call void @llvm.lifetime.start.p0(i64 1, ptr %3) #15
  %4 = load ptr, ptr %2, align 8, !tbaa !8
  %5 = getelementptr inbounds nuw %"struct.duckdb_yyjson::yyjson_val", ptr %4, i32 0, i32 0
  %6 = load i64, ptr %5, align 8, !tbaa !88
  %7 = trunc i64 %6 to i8
  store i8 %7, ptr %3, align 1, !tbaa !87
  %8 = load i8, ptr %3, align 1, !tbaa !87
  %9 = zext i8 %8 to i32
  %10 = and i32 %9, 7
  %11 = trunc i32 %10 to i8
  call void @llvm.lifetime.end.p0(i64 1, ptr %3) #15
  ret i8 %11
}

; Function Attrs: mustprogress uwtable
define internal void @_ZN13duckdb_yyjsonL15yyjson_mut_statEPNS_14yyjson_mut_valEPmS2_(ptr noundef %0, ptr noundef %1, ptr noundef %2) #1 {
  %4 = alloca ptr, align 8
  %5 = alloca ptr, align 8
  %6 = alloca ptr, align 8
  %7 = alloca i8, align 1
  %8 = alloca ptr, align 8
  %9 = alloca i64, align 8
  %10 = alloca i64, align 8
  %11 = alloca i8, align 1
  store ptr %0, ptr %4, align 8, !tbaa !85
  store ptr %1, ptr %5, align 8, !tbaa !107
  store ptr %2, ptr %6, align 8, !tbaa !107
  call void @llvm.lifetime.start.p0(i64 1, ptr %7) #15
  %12 = load ptr, ptr %4, align 8, !tbaa !85
  %13 = call noundef zeroext i8 @_ZN13duckdb_yyjsonL22unsafe_yyjson_get_typeEPv(ptr noundef %12)
  store i8 %13, ptr %7, align 1, !tbaa !87
  %14 = load ptr, ptr %5, align 8, !tbaa !107
  %15 = load i64, ptr %14, align 8, !tbaa !9
  %16 = add i64 %15, 1
  store i64 %16, ptr %14, align 8, !tbaa !9
  %17 = load i8, ptr %7, align 1, !tbaa !87
  %18 = zext i8 %17 to i32
  %19 = icmp eq i32 %18, 6
  br i1 %19, label %24, label %20

20:                                               ; preds = %3
  %21 = load i8, ptr %7, align 1, !tbaa !87
  %22 = zext i8 %21 to i32
  %23 = icmp eq i32 %22, 7
  br i1 %23, label %24, label %87

24:                                               ; preds = %20, %3
  call void @llvm.lifetime.start.p0(i64 8, ptr %8) #15
  %25 = load ptr, ptr %4, align 8, !tbaa !85
  %26 = getelementptr inbounds nuw %"struct.duckdb_yyjson::yyjson_mut_val", ptr %25, i32 0, i32 1
  %27 = load ptr, ptr %26, align 8, !tbaa !87
  store ptr %27, ptr %8, align 8, !tbaa !85
  call void @llvm.lifetime.start.p0(i64 8, ptr %9) #15
  %28 = load ptr, ptr %4, align 8, !tbaa !85
  %29 = call noundef i64 @_ZN13duckdb_yyjsonL21unsafe_yyjson_get_lenEPv(ptr noundef %28)
  store i64 %29, ptr %9, align 8, !tbaa !9
  call void @llvm.lifetime.start.p0(i64 8, ptr %10) #15
  %30 = load i8, ptr %7, align 1, !tbaa !87
  %31 = zext i8 %30 to i32
  %32 = icmp eq i32 %31, 7
  %33 = zext i1 %32 to i8
  %34 = zext i8 %33 to i32
  %35 = load i64, ptr %9, align 8, !tbaa !9
  %36 = zext i32 %34 to i64
  %37 = shl i64 %35, %36
  store i64 %37, ptr %9, align 8, !tbaa !9
  %38 = load i64, ptr %9, align 8, !tbaa !9
  %39 = load ptr, ptr %5, align 8, !tbaa !107
  %40 = load i64, ptr %39, align 8, !tbaa !9
  %41 = add i64 %40, %38
  store i64 %41, ptr %39, align 8, !tbaa !9
  store i64 0, ptr %10, align 8, !tbaa !9
  br label %42

42:                                               ; preds = %83, %24
  %43 = load i64, ptr %10, align 8, !tbaa !9
  %44 = load i64, ptr %9, align 8, !tbaa !9
  %45 = icmp ult i64 %43, %44
  br i1 %45, label %46, label %86

46:                                               ; preds = %42
  call void @llvm.lifetime.start.p0(i64 1, ptr %11) #15
  %47 = load ptr, ptr %8, align 8, !tbaa !85
  %48 = call noundef zeroext i8 @_ZN13duckdb_yyjsonL22unsafe_yyjson_get_typeEPv(ptr noundef %47)
  store i8 %48, ptr %11, align 1, !tbaa !87
  %49 = load i8, ptr %11, align 1, !tbaa !87
  %50 = zext i8 %49 to i32
  %51 = icmp eq i32 %50, 5
  br i1 %51, label %56, label %52

52:                                               ; preds = %46
  %53 = load i8, ptr %11, align 1, !tbaa !87
  %54 = zext i8 %53 to i32
  %55 = icmp eq i32 %54, 1
  br i1 %55, label %56, label %63

56:                                               ; preds = %52, %46
  %57 = load ptr, ptr %8, align 8, !tbaa !85
  %58 = call noundef i64 @_ZN13duckdb_yyjsonL21unsafe_yyjson_get_lenEPv(ptr noundef %57)
  %59 = add i64 %58, 1
  %60 = load ptr, ptr %6, align 8, !tbaa !107
  %61 = load i64, ptr %60, align 8, !tbaa !9
  %62 = add i64 %61, %59
  store i64 %62, ptr %60, align 8, !tbaa !9
  br label %79

63:                                               ; preds = %52
  %64 = load i8, ptr %11, align 1, !tbaa !87
  %65 = zext i8 %64 to i32
  %66 = icmp eq i32 %65, 6
  br i1 %66, label %71, label %67

67:                                               ; preds = %63
  %68 = load i8, ptr %11, align 1, !tbaa !87
  %69 = zext i8 %68 to i32
  %70 = icmp eq i32 %69, 7
  br i1 %70, label %71, label %78

71:                                               ; preds = %67, %63
  %72 = load ptr, ptr %8, align 8, !tbaa !85
  %73 = load ptr, ptr %5, align 8, !tbaa !107
  %74 = load ptr, ptr %6, align 8, !tbaa !107
  call void @_ZN13duckdb_yyjsonL15yyjson_mut_statEPNS_14yyjson_mut_valEPmS2_(ptr noundef %72, ptr noundef %73, ptr noundef %74)
  %75 = load ptr, ptr %5, align 8, !tbaa !107
  %76 = load i64, ptr %75, align 8, !tbaa !9
  %77 = sub i64 %76, 1
  store i64 %77, ptr %75, align 8, !tbaa !9
  br label %78

78:                                               ; preds = %71, %67
  br label %79

79:                                               ; preds = %78, %56
  %80 = load ptr, ptr %8, align 8, !tbaa !85
  %81 = getelementptr inbounds nuw %"struct.duckdb_yyjson::yyjson_mut_val", ptr %80, i32 0, i32 2
  %82 = load ptr, ptr %81, align 8, !tbaa !93
  store ptr %82, ptr %8, align 8, !tbaa !85
  call void @llvm.lifetime.end.p0(i64 1, ptr %11) #15
  br label %83

83:                                               ; preds = %79
  %84 = load i64, ptr %10, align 8, !tbaa !9
  %85 = add i64 %84, 1
  store i64 %85, ptr %10, align 8, !tbaa !9
  br label %42, !llvm.loop !109

86:                                               ; preds = %42
  call void @llvm.lifetime.end.p0(i64 8, ptr %10) #15
  call void @llvm.lifetime.end.p0(i64 8, ptr %9) #15
  call void @llvm.lifetime.end.p0(i64 8, ptr %8) #15
  br label %103

87:                                               ; preds = %20
  %88 = load i8, ptr %7, align 1, !tbaa !87
  %89 = zext i8 %88 to i32
  %90 = icmp eq i32 %89, 5
  br i1 %90, label %95, label %91

91:                                               ; preds = %87
  %92 = load i8, ptr %7, align 1, !tbaa !87
  %93 = zext i8 %92 to i32
  %94 = icmp eq i32 %93, 1
  br i1 %94, label %95, label %102

95:                                               ; preds = %91, %87
  %96 = load ptr, ptr %4, align 8, !tbaa !85
  %97 = call noundef i64 @_ZN13duckdb_yyjsonL21unsafe_yyjson_get_lenEPv(ptr noundef %96)
  %98 = add i64 %97, 1
  %99 = load ptr, ptr %6, align 8, !tbaa !107
  %100 = load i64, ptr %99, align 8, !tbaa !9
  %101 = add i64 %100, %98
  store i64 %101, ptr %99, align 8, !tbaa !9
  br label %102

102:                                              ; preds = %95, %91
  br label %103

103:                                              ; preds = %102, %86
  call void @llvm.lifetime.end.p0(i64 1, ptr %7) #15
  ret void
}