; Function Attrs: mustprogress nofree nosync nounwind memory(readwrite, inaccessiblemem: none) uwtable
define internal fastcc void @_ZN13duckdb_yyjsonL15yyjson_mut_statEPNS_14yyjson_mut_valEPmS2_(ptr noundef readonly captures(none) %0, ptr noundef nonnull captures(none) %1, ptr noundef nonnull captures(none) %2) unnamed_addr #12 {
  %4 = load i64, ptr %0, align 8, !tbaa !73
  %5 = trunc i64 %4 to i8
  %6 = load i64, ptr %1, align 8, !tbaa !85
  %7 = add i64 %6, 1
  store i64 %7, ptr %1, align 8, !tbaa !85
  %8 = and i8 %5, 6
  %or.cond = icmp eq i8 %8, 6
  br i1 %or.cond, label %9, label %36

9:                                                ; preds = %3
  %10 = and i8 %5, 7
  %11 = icmp eq i8 %10, 7
  %12 = getelementptr inbounds nuw i8, ptr %0, i64 8
  %13 = load ptr, ptr %12, align 8, !tbaa !75
  %14 = load i64, ptr %0, align 8, !tbaa !73
  %15 = lshr i64 %14, 8
  %16 = zext i1 %11 to i64
  %17 = shl nuw nsw i64 %15, %16
  %18 = add i64 %17, %7
  store i64 %18, ptr %1, align 8, !tbaa !85
  %.not = icmp ult i64 %14, 256
  br i1 %.not, label %.loopexit, label %.lr.ph.preheader

.lr.ph.preheader:                                 ; preds = %9
  %umax = tail call i64 @llvm.umax.i64(i64 %17, i64 1)
  br label %.lr.ph

.lr.ph:                                           ; preds = %.lr.ph.preheader, %32
  %.043 = phi ptr [ %34, %32 ], [ %13, %.lr.ph.preheader ]
  %.03942 = phi i64 [ %35, %32 ], [ 0, %.lr.ph.preheader ]
  %19 = load i64, ptr %.043, align 8, !tbaa !73
  %20 = trunc i64 %19 to i8
  %21 = and i8 %20, 3
  %or.cond5 = icmp eq i8 %21, 1
  br i1 %or.cond5, label %22, label %27

22:                                               ; preds = %.lr.ph
  %23 = lshr i64 %19, 8
  %24 = add nuw nsw i64 %23, 1
  %25 = load i64, ptr %2, align 8, !tbaa !85
  %26 = add i64 %24, %25
  store i64 %26, ptr %2, align 8, !tbaa !85
  br label %32

27:                                               ; preds = %.lr.ph
  %28 = and i8 %20, 6
  %or.cond8 = icmp eq i8 %28, 6
  br i1 %or.cond8, label %29, label %32

29:                                               ; preds = %27
  tail call fastcc void @_ZN13duckdb_yyjsonL15yyjson_mut_statEPNS_14yyjson_mut_valEPmS2_(ptr noundef nonnull %.043, ptr noundef %1, ptr noundef %2)
  %30 = load i64, ptr %1, align 8, !tbaa !85
  %31 = add i64 %30, -1
  store i64 %31, ptr %1, align 8, !tbaa !85
  br label %32

32:                                               ; preds = %29, %27, %22
  %33 = getelementptr inbounds nuw i8, ptr %.043, i64 16
  %34 = load ptr, ptr %33, align 8, !tbaa !79
  %35 = add nuw nsw i64 %.03942, 1
  %exitcond.not = icmp eq i64 %35, %umax
  br i1 %exitcond.not, label %.loopexit, label %.lr.ph, !llvm.loop !91

36:                                               ; preds = %3
  %37 = and i8 %5, 3
  %or.cond11 = icmp eq i8 %37, 1
  br i1 %or.cond11, label %38, label %.loopexit

38:                                               ; preds = %36
  %39 = load i64, ptr %0, align 8, !tbaa !73
  %40 = lshr i64 %39, 8
  %41 = add nuw nsw i64 %40, 1
  %42 = load i64, ptr %2, align 8, !tbaa !85
  %43 = add i64 %41, %42
  store i64 %43, ptr %2, align 8, !tbaa !85
  br label %.loopexit

.loopexit:                                        ; preds = %32, %9, %38, %36
  ret void
}